target datalayout = "e-m:e-p270:32:32-p271:32:32-p272:64:64-i64:64-i128:128-f80:128-n8:16:32:64-S128"
target triple = "x86_64-pc-linux-gnu"

@.str.1 = private unnamed_addr constant [57 x i8] c"ABC framework is not initialized by calling Abc_Start()\0A\00", align 1

; Function Attrs: nounwind uwtable
define void @Abc_FrameGiaInputMiniLut(ptr noundef %0, ptr noundef %1) #0 {
  %3 = alloca ptr, align 8
  %4 = alloca ptr, align 8
  %5 = alloca ptr, align 8
  store ptr %0, ptr %3, align 8, !tbaa !58
  store ptr %1, ptr %4, align 8, !tbaa !60
  call void @llvm.lifetime.start.p0(i64 8, ptr %5) #13
  %6 = load ptr, ptr %3, align 8, !tbaa !58
  %7 = icmp eq ptr %6, null
  br i1 %7, label %8, label %10

8:                                                ; preds = %2
  %9 = call i32 (ptr, ...) @printf(ptr noundef @.str.1)
  br label %10

10:                                               ; preds = %8, %2
  %11 = load ptr, ptr %4, align 8, !tbaa !60
  %12 = call ptr @Gia_ManFromMiniLut(ptr noundef %11, ptr noundef null)
  store ptr %12, ptr %5, align 8, !tbaa !3
  %13 = load ptr, ptr %3, align 8, !tbaa !58
  %14 = load ptr, ptr %5, align 8, !tbaa !3
  call void @Abc_FrameUpdateGia(ptr noundef %13, ptr noundef %14)
  call void @llvm.lifetime.end.p0(i64 8, ptr %5) #13
  ret void
}