; Function Attrs: nounwind uwtable
define void @Abc_FrameGiaInputMiniLut(ptr noundef %0, ptr noundef readonly captures(none) %1) local_unnamed_addr #2 {
  %3 = icmp eq ptr %0, null
  br i1 %3, label %4, label %5

4:                                                ; preds = %2
  %puts = tail call i32 @puts(ptr nonnull dereferenceable(1) @str.20)
  br label %5

5:                                                ; preds = %4, %2
  %6 = tail call ptr @Gia_ManFromMiniLut(ptr noundef %1, ptr noundef null)
  tail call void @Abc_FrameUpdateGia(ptr noundef %0, ptr noundef %6) #25
  ret void
}